; Function Attrs: mustprogress nofree nounwind willreturn memory(write, argmem: read, inaccessiblemem: readwrite) uwtable
define dso_local noalias noundef ptr @array_of(ptr noundef %base, i32 noundef %len) local_unnamed_addr #6 {
entry:
  %size = getelementptr inbounds %struct.Type, ptr %base, i64 0, i32 1
  %0 = load i32, ptr %size, align 4
  %mul = mul nsw i32 %0, %len
  %align = getelementptr inbounds %struct.Type, ptr %base, i64 0, i32 2
  %1 = load i32, ptr %align, align 8
  %call.i = tail call noalias dereferenceable_or_null(120) ptr @calloc(i64 noundef 1, i64 noundef 120) #11
  store i32 12, ptr %call.i, align 8
  %size2.i = getelementptr inbounds %struct.Type, ptr %call.i, i64 0, i32 1
  store i32 %mul, ptr %size2.i, align 4
  %align3.i = getelementptr inbounds %struct.Type, ptr %call.i, i64 0, i32 2
  store i32 %1, ptr %align3.i, align 8
  %base1 = getelementptr inbounds %struct.Type, ptr %call.i, i64 0, i32 6
  store ptr %base, ptr %base1, align 8
  %array_len = getelementptr inbounds %struct.Type, ptr %call.i, i64 0, i32 9
  store i32 %len, ptr %array_len, align 8
  ret ptr %call.i
}